target datalayout = "e-m:e-p270:32:32-p271:32:32-p272:64:64-i64:64-i128:128-f80:128-n8:16:32:64-S128"
target triple = "x86_64-unknown-linux-gnu"

%"class.std::__shared_count" = type { ptr }
%"class.node::inspector::Agent" = type <{ ptr, %"class.std::shared_ptr", %"class.std::unique_ptr", %"class.std::unique_ptr.2", %"class.std::__cxx11::basic_string", %"class.node::DebugOptions", %"class.std::shared_ptr.10", i8, i8, [6 x i8] }>
%"class.std::shared_ptr" = type { %"class.std::__shared_ptr" }
%"class.std::__shared_ptr" = type { ptr, %"class.std::__shared_count" }
%"class.std::unique_ptr" = type { %"struct.std::__uniq_ptr_data" }
%"struct.std::__uniq_ptr_data" = type { %"class.std::__uniq_ptr_impl" }
%"class.std::__uniq_ptr_impl" = type { %"class.std::tuple" }
%"class.std::tuple" = type { %"struct.std::_Tuple_impl" }
%"struct.std::_Tuple_impl" = type { %"struct.std::_Head_base.1" }
%"struct.std::_Head_base.1" = type { ptr }
%"class.std::unique_ptr.2" = type { %"struct.std::__uniq_ptr_data.3" }
%"struct.std::__uniq_ptr_data.3" = type { %"class.std::__uniq_ptr_impl.4" }
%"class.std::__uniq_ptr_impl.4" = type { %"class.std::tuple.5" }
%"class.std::tuple.5" = type { %"struct.std::_Tuple_impl.6" }
%"struct.std::_Tuple_impl.6" = type { %"struct.std::_Head_base.9" }
%"struct.std::_Head_base.9" = type { ptr }
%"class.std::__cxx11::basic_string" = type { %"struct.std::__cxx11::basic_string<char>::_Alloc_hider", i64, %union.anon }
%"struct.std::__cxx11::basic_string<char>::_Alloc_hider" = type { ptr }
%union.anon = type { i64, [8 x i8] }
%"class.node::DebugOptions" = type { %"class.node::Options", i8, i8, i8, i8, i8, %"class.std::__cxx11::basic_string", %"struct.node::InspectPublishUid", [6 x i8], %"class.node::HostPort" }
%"class.node::Options" = type { ptr }
%"struct.node::InspectPublishUid" = type { i8, i8 }
%"class.node::HostPort" = type <{ %"class.std::__cxx11::basic_string", i16, [6 x i8] }>
%"class.std::shared_ptr.10" = type { %"class.std::__shared_ptr.11" }
%"class.std::__shared_ptr.11" = type { ptr, %"class.std::__shared_count" }
%"struct.std::__detail::_Hash_node_base" = type { ptr }
%"struct.std::__detail::_Prime_rehash_policy" = type { float, i64 }
%"class.std::shared_ptr.317" = type { %"class.std::__shared_ptr.318" }
%"class.std::__shared_ptr.318" = type { ptr, %"class.std::__shared_count" }
%"class.node::inspector::NodeInspectorClient" = type { %"class.v8_inspector::V8InspectorClient", ptr, i8, i8, %"class.std::unique_ptr.275", %"class.std::unordered_map.283", %"class.std::unordered_map.303", i32, i8, i8, i8, %"class.std::shared_ptr.317", %"class.std::shared_ptr.320" }
%"class.v8_inspector::V8InspectorClient" = type { ptr }
%"class.std::unique_ptr.275" = type { %"struct.std::__uniq_ptr_data.276" }
%"struct.std::__uniq_ptr_data.276" = type { %"class.std::__uniq_ptr_impl.277" }
%"class.std::__uniq_ptr_impl.277" = type { %"class.std::tuple.278" }
%"class.std::tuple.278" = type { %"struct.std::_Tuple_impl.279" }
%"struct.std::_Tuple_impl.279" = type { %"struct.std::_Head_base.282" }
%"struct.std::_Head_base.282" = type { ptr }
%"class.std::unordered_map.283" = type { %"class.std::_Hashtable.284" }
%"class.std::_Hashtable.284" = type { ptr, i64, %"struct.std::__detail::_Hash_node_base", i64, %"struct.std::__detail::_Prime_rehash_policy", ptr }
%"class.std::unordered_map.303" = type { %"class.std::_Hashtable.304" }
%"class.std::_Hashtable.304" = type { ptr, i64, %"struct.std::__detail::_Hash_node_base", i64, %"struct.std::__detail::_Prime_rehash_policy", ptr }
%"class.std::shared_ptr.320" = type { %"class.std::__shared_ptr.321" }
%"class.std::__shared_ptr.321" = type { ptr, %"class.std::__shared_count" }

; Function Attrs: mustprogress nounwind uwtable
define linkonce_odr dso_local noundef nonnull align 8 dereferenceable(8) ptr @_ZNSt10_Head_baseILm0EPN12v8_inspector11V8InspectorELb0EE7_M_headERKS3_(ptr noundef nonnull align 8 dereferenceable(8) %__b) #4 comdat align 2 {
entry:
  %__b.addr = alloca ptr, align 8
  store ptr %__b, ptr %__b.addr, align 8
  %0 = load ptr, ptr %__b.addr, align 8
  %_M_head_impl = getelementptr inbounds %"struct.std::_Head_base.282", ptr %0, i32 0, i32 0
  ret ptr %_M_head_impl
}

; Function Attrs: mustprogress nounwind uwtable
define linkonce_odr dso_local noundef nonnull align 8 dereferenceable(8) ptr @_ZNSt11_Tuple_implILm0EJPN12v8_inspector11V8InspectorESt14default_deleteIS1_EEE7_M_headERKS5_(ptr noundef nonnull align 8 dereferenceable(8) %__t) #4 comdat align 2 {
entry:
  %__t.addr = alloca ptr, align 8
  store ptr %__t, ptr %__t.addr, align 8
  %0 = load ptr, ptr %__t.addr, align 8
  %call = call noundef nonnull align 8 dereferenceable(8) ptr @_ZNSt10_Head_baseILm0EPN12v8_inspector11V8InspectorELb0EE7_M_headERKS3_(ptr noundef nonnull align 8 dereferenceable(8) %0) #3
  ret ptr %call
}

; Function Attrs: mustprogress nounwind uwtable
define linkonce_odr dso_local noundef nonnull align 8 dereferenceable(8) ptr @_ZSt12__get_helperILm0EPN12v8_inspector11V8InspectorEJSt14default_deleteIS1_EEERKT0_RKSt11_Tuple_implIXT_EJS5_DpT1_EE(ptr noundef nonnull align 8 dereferenceable(8) %__t) #4 comdat {
entry:
  %__t.addr = alloca ptr, align 8
  store ptr %__t, ptr %__t.addr, align 8
  %0 = load ptr, ptr %__t.addr, align 8
  %call = call noundef nonnull align 8 dereferenceable(8) ptr @_ZNSt11_Tuple_implILm0EJPN12v8_inspector11V8InspectorESt14default_deleteIS1_EEE7_M_headERKS5_(ptr noundef nonnull align 8 dereferenceable(8) %0) #3
  ret ptr %call
}

; Function Attrs: mustprogress nounwind uwtable
define linkonce_odr dso_local noundef nonnull align 8 dereferenceable(8) ptr @_ZSt3getILm0EJPN12v8_inspector11V8InspectorESt14default_deleteIS1_EEERKNSt13tuple_elementIXT_ESt5tupleIJDpT0_EEE4typeERKS9_(ptr noundef nonnull align 8 dereferenceable(8) %__t) #4 comdat {
entry:
  %__t.addr = alloca ptr, align 8
  store ptr %__t, ptr %__t.addr, align 8
  %0 = load ptr, ptr %__t.addr, align 8
  %call = call noundef nonnull align 8 dereferenceable(8) ptr @_ZSt12__get_helperILm0EPN12v8_inspector11V8InspectorEJSt14default_deleteIS1_EEERKT0_RKSt11_Tuple_implIXT_EJS5_DpT1_EE(ptr noundef nonnull align 8 dereferenceable(8) %0) #3
  ret ptr %call
}

; Function Attrs: mustprogress nounwind uwtable
define linkonce_odr dso_local noundef ptr @_ZNKSt15__uniq_ptr_implIN12v8_inspector11V8InspectorESt14default_deleteIS1_EE6_M_ptrEv(ptr noundef nonnull align 8 dereferenceable(8) %this) #4 comdat align 2 {
entry:
  %this.addr = alloca ptr, align 8
  store ptr %this, ptr %this.addr, align 8
  %this1 = load ptr, ptr %this.addr, align 8
  %_M_t = getelementptr inbounds %"class.std::__uniq_ptr_impl.277", ptr %this1, i32 0, i32 0
  %call = call noundef nonnull align 8 dereferenceable(8) ptr @_ZSt3getILm0EJPN12v8_inspector11V8InspectorESt14default_deleteIS1_EEERKNSt13tuple_elementIXT_ESt5tupleIJDpT0_EEE4typeERKS9_(ptr noundef nonnull align 8 dereferenceable(8) %_M_t) #3
  %0 = load ptr, ptr %call, align 8
  ret ptr %0
}

; Function Attrs: mustprogress nounwind uwtable
define linkonce_odr dso_local noundef ptr @_ZNKSt10unique_ptrIN12v8_inspector11V8InspectorESt14default_deleteIS1_EE3getEv(ptr noundef nonnull align 8 dereferenceable(8) %this) #4 comdat align 2 {
entry:
  %this.addr = alloca ptr, align 8
  store ptr %this, ptr %this.addr, align 8
  %this1 = load ptr, ptr %this.addr, align 8
  %_M_t = getelementptr inbounds %"class.std::unique_ptr.275", ptr %this1, i32 0, i32 0
  %call = call noundef ptr @_ZNKSt15__uniq_ptr_implIN12v8_inspector11V8InspectorESt14default_deleteIS1_EE6_M_ptrEv(ptr noundef nonnull align 8 dereferenceable(8) %_M_t) #3
  ret ptr %call
}

; Function Attrs: mustprogress nounwind uwtable
define linkonce_odr dso_local noundef ptr @_ZNKSt12__shared_ptrIN4node9inspector19NodeInspectorClientELN9__gnu_cxx12_Lock_policyE2EE3getEv(ptr noundef nonnull align 8 dereferenceable(16) %this) #4 comdat align 2 {
entry:
  %this.addr = alloca ptr, align 8
  store ptr %this, ptr %this.addr, align 8
  %this1 = load ptr, ptr %this.addr, align 8
  %_M_ptr = getelementptr inbounds %"class.std::__shared_ptr", ptr %this1, i32 0, i32 0
  %0 = load ptr, ptr %_M_ptr, align 8
  ret ptr %0
}

; Function Attrs: mustprogress nounwind uwtable
define linkonce_odr dso_local noundef ptr @_ZNKSt10unique_ptrIN12v8_inspector11V8InspectorESt14default_deleteIS1_EEptEv(ptr noundef nonnull align 8 dereferenceable(8) %this) #4 comdat align 2 {
entry:
  %this.addr = alloca ptr, align 8
  store ptr %this, ptr %this.addr, align 8
  %this1 = load ptr, ptr %this.addr, align 8
  %call = call noundef ptr @_ZNKSt10unique_ptrIN12v8_inspector11V8InspectorESt14default_deleteIS1_EE3getEv(ptr noundef nonnull align 8 dereferenceable(8) %this1) #3
  ret ptr %call
}

; Function Attrs: mustprogress nounwind uwtable
define linkonce_odr dso_local noundef ptr @_ZNKSt19__shared_ptr_accessIN4node9inspector19NodeInspectorClientELN9__gnu_cxx12_Lock_policyE2ELb0ELb0EE6_M_getEv(ptr noundef nonnull align 1 dereferenceable(1) %this) #4 comdat align 2 {
entry:
  %this.addr = alloca ptr, align 8
  store ptr %this, ptr %this.addr, align 8
  %this1 = load ptr, ptr %this.addr, align 8
  %call = call noundef ptr @_ZNKSt12__shared_ptrIN4node9inspector19NodeInspectorClientELN9__gnu_cxx12_Lock_policyE2EE3getEv(ptr noundef nonnull align 8 dereferenceable(16) %this1) #3
  ret ptr %call
}

; Function Attrs: mustprogress nounwind uwtable
define linkonce_odr dso_local void @_ZN4node9inspector19NodeInspectorClient16AsyncTaskStartedEPv(ptr noundef nonnull align 8 dereferenceable(184) %this, ptr noundef %task) #4 comdat align 2 {
entry:
  %this.addr = alloca ptr, align 8
  %task.addr = alloca ptr, align 8
  store ptr %this, ptr %this.addr, align 8
  store ptr %task, ptr %task.addr, align 8
  %this1 = load ptr, ptr %this.addr, align 8
  %client_ = getelementptr inbounds %"class.node::inspector::NodeInspectorClient", ptr %this1, i32 0, i32 4
  %call = call noundef ptr @_ZNKSt10unique_ptrIN12v8_inspector11V8InspectorESt14default_deleteIS1_EEptEv(ptr noundef nonnull align 8 dereferenceable(8) %client_) #3
  %0 = load ptr, ptr %task.addr, align 8
  %vtable = load ptr, ptr %call, align 8
  %vfn = getelementptr inbounds ptr, ptr %vtable, i64 11
  %1 = load ptr, ptr %vfn, align 8
  call void %1(ptr noundef nonnull align 8 dereferenceable(8) %call, ptr noundef %0)
  ret void
}

; Function Attrs: mustprogress nounwind uwtable
define linkonce_odr dso_local noundef ptr @_ZNKSt19__shared_ptr_accessIN4node9inspector19NodeInspectorClientELN9__gnu_cxx12_Lock_policyE2ELb0ELb0EEptEv(ptr noundef nonnull align 1 dereferenceable(1) %this) #4 comdat align 2 {
entry:
  %this.addr = alloca ptr, align 8
  store ptr %this, ptr %this.addr, align 8
  %this1 = load ptr, ptr %this.addr, align 8
  %call = call noundef ptr @_ZNKSt19__shared_ptr_accessIN4node9inspector19NodeInspectorClientELN9__gnu_cxx12_Lock_policyE2ELb0ELb0EE6_M_getEv(ptr noundef nonnull align 1 dereferenceable(1) %this1) #3
  ret ptr %call
}

; Function Attrs: mustprogress nounwind uwtable
define dso_local void @_ZN4node9inspector5Agent16AsyncTaskStartedEPv(ptr noundef nonnull align 8 dereferenceable(186) %this, ptr noundef %task) #4 align 2 {
entry:
  %this.addr = alloca ptr, align 8
  %task.addr = alloca ptr, align 8
  store ptr %this, ptr %this.addr, align 8
  store ptr %task, ptr %task.addr, align 8
  %this1 = load ptr, ptr %this.addr, align 8
  %client_ = getelementptr inbounds %"class.node::inspector::Agent", ptr %this1, i32 0, i32 1
  %call = call noundef ptr @_ZNKSt19__shared_ptr_accessIN4node9inspector19NodeInspectorClientELN9__gnu_cxx12_Lock_policyE2ELb0ELb0EEptEv(ptr noundef nonnull align 1 dereferenceable(1) %client_) #3
  %0 = load ptr, ptr %task.addr, align 8
  call void @_ZN4node9inspector19NodeInspectorClient16AsyncTaskStartedEPv(ptr noundef nonnull align 8 dereferenceable(184) %call, ptr noundef %0)
  ret void
}